; Function Attrs: nofree nounwind uwtable
define dso_local range(i64 68, 73) i64 @footer_size(i32 noundef %0) local_unnamed_addr #0 {
  switch i32 %0, label %3 [
    i32 1, label %4
    i32 2, label %2
  ]

2:                                                ; preds = %1
  br label %4

3:                                                ; preds = %1
  tail call void @abort() #10
  unreachable

4:                                                ; preds = %1, %2
  %.0 = phi i64 [ 72, %2 ], [ 68, %1 ]
  ret i64 %.0
}